target datalayout = "e-m:e-p270:32:32-p271:32:32-p272:64:64-i64:64-i128:128-f80:128-n8:16:32:64-S128"
target triple = "x86_64-pc-linux-gnu"

%struct.psa_key_slot_t = type { %struct.psa_key_attributes_s, i32, i8, %union.anon, %struct.key_data }
%struct.psa_key_attributes_s = type { i16, i16, i32, %struct.psa_key_policy_s, i32 }
%struct.psa_key_policy_s = type { i32, i32, i32 }
%union.anon = type { %struct.anon.0 }
%struct.anon.0 = type { i64 }
%struct.key_data = type { ptr, i64 }

; Function Attrs: nounwind uwtable
define hidden i32 @psa_allocate_buffer_to_slot(ptr noundef %0, i64 noundef %1) #0 {
  %3 = alloca i32, align 4
  %4 = alloca ptr, align 8
  %5 = alloca i64, align 8
  store ptr %0, ptr %4, align 8, !tbaa !21
  store i64 %1, ptr %5, align 8, !tbaa !20
  %6 = load ptr, ptr %4, align 8, !tbaa !21
  %7 = getelementptr inbounds nuw %struct.psa_key_slot_t, ptr %6, i32 0, i32 4
  %8 = getelementptr inbounds nuw %struct.key_data, ptr %7, i32 0, i32 0
  %9 = load ptr, ptr %8, align 8, !tbaa !22
  %10 = icmp ne ptr %9, null
  br i1 %10, label %11, label %12

11:                                               ; preds = %2
  store i32 -139, ptr %3, align 4
  br label %29

12:                                               ; preds = %2
  %13 = load i64, ptr %5, align 8, !tbaa !20
  %14 = call noalias ptr @calloc(i64 noundef 1, i64 noundef %13) #9
  %15 = load ptr, ptr %4, align 8, !tbaa !21
  %16 = getelementptr inbounds nuw %struct.psa_key_slot_t, ptr %15, i32 0, i32 4
  %17 = getelementptr inbounds nuw %struct.key_data, ptr %16, i32 0, i32 0
  store ptr %14, ptr %17, align 8, !tbaa !22
  %18 = load ptr, ptr %4, align 8, !tbaa !21
  %19 = getelementptr inbounds nuw %struct.psa_key_slot_t, ptr %18, i32 0, i32 4
  %20 = getelementptr inbounds nuw %struct.key_data, ptr %19, i32 0, i32 0
  %21 = load ptr, ptr %20, align 8, !tbaa !22
  %22 = icmp eq ptr %21, null
  br i1 %22, label %23, label %24

23:                                               ; preds = %12
  store i32 -141, ptr %3, align 4
  br label %29

24:                                               ; preds = %12
  %25 = load i64, ptr %5, align 8, !tbaa !20
  %26 = load ptr, ptr %4, align 8, !tbaa !21
  %27 = getelementptr inbounds nuw %struct.psa_key_slot_t, ptr %26, i32 0, i32 4
  %28 = getelementptr inbounds nuw %struct.key_data, ptr %27, i32 0, i32 1
  store i64 %25, ptr %28, align 8, !tbaa !28
  store i32 0, ptr %3, align 4
  br label %29

29:                                               ; preds = %24, %23, %11
  %30 = load i32, ptr %3, align 4
  ret i32 %30
}

; Function Attrs: nounwind uwtable
define hidden i32 @psa_copy_key_material_into_slot(ptr noundef %0, ptr noundef %1, i64 noundef %2) #0 {
  %4 = alloca i32, align 4
  %5 = alloca ptr, align 8
  %6 = alloca ptr, align 8
  %7 = alloca i64, align 8
  %8 = alloca i32, align 4
  %9 = alloca i32, align 4
  store ptr %0, ptr %5, align 8, !tbaa !21
  store ptr %1, ptr %6, align 8, !tbaa !29
  store i64 %2, ptr %7, align 8, !tbaa !20
  call void @llvm.lifetime.start.p0(i64 4, ptr %8) #8
  %10 = load ptr, ptr %5, align 8, !tbaa !21
  %11 = load i64, ptr %7, align 8, !tbaa !20
  %12 = call i32 @psa_allocate_buffer_to_slot(ptr noundef %10, i64 noundef %11)
  store i32 %12, ptr %8, align 4, !tbaa !3
  %13 = load i32, ptr %8, align 4, !tbaa !3
  %14 = icmp ne i32 %13, 0
  br i1 %14, label %15, label %17

15:                                               ; preds = %3
  %16 = load i32, ptr %8, align 4, !tbaa !3
  store i32 %16, ptr %4, align 4
  store i32 1, ptr %9, align 4
  br label %24

17:                                               ; preds = %3
  %18 = load ptr, ptr %5, align 8, !tbaa !21
  %19 = getelementptr inbounds nuw %struct.psa_key_slot_t, ptr %18, i32 0, i32 4
  %20 = getelementptr inbounds nuw %struct.key_data, ptr %19, i32 0, i32 0
  %21 = load ptr, ptr %20, align 8, !tbaa !22
  %22 = load ptr, ptr %6, align 8, !tbaa !29
  %23 = load i64, ptr %7, align 8, !tbaa !20
  call void @llvm.memcpy.p0.p0.i64(ptr align 1 %21, ptr align 1 %22, i64 %23, i1 false)
  store i32 0, ptr %4, align 4
  store i32 1, ptr %9, align 4
  br label %24

24:                                               ; preds = %17, %15
  call void @llvm.lifetime.end.p0(i64 4, ptr %8) #8
  %25 = load i32, ptr %4, align 4
  ret i32 %25
}