; Function Attrs: mustprogress nofree nounwind willreturn uwtable
define hidden range(i32 -141, 1) i32 @psa_copy_key_material_into_slot(ptr noundef captures(none) %0, ptr noundef readonly captures(none) %1, i64 noundef %2) local_unnamed_addr #5 {
  %4 = getelementptr inbounds nuw i8, ptr %0, i64 40
  %5 = load ptr, ptr %4, align 8, !tbaa !16
  %.not.i = icmp eq ptr %5, null
  br i1 %.not.i, label %6, label %psa_allocate_buffer_to_slot.exit.thread

6:                                                ; preds = %3
  %7 = tail call noalias ptr @calloc(i64 noundef 1, i64 noundef %2) #21
  store ptr %7, ptr %4, align 8, !tbaa !16
  %8 = icmp eq ptr %7, null
  br i1 %8, label %psa_allocate_buffer_to_slot.exit.thread, label %9

9:                                                ; preds = %6
  %10 = getelementptr inbounds nuw i8, ptr %0, i64 48
  store i64 %2, ptr %10, align 8, !tbaa !23
  tail call void @llvm.memcpy.p0.p0.i64(ptr nonnull align 1 %7, ptr align 1 %1, i64 %2, i1 false)
  br label %psa_allocate_buffer_to_slot.exit.thread

psa_allocate_buffer_to_slot.exit.thread:          ; preds = %6, %3, %9
  %.0 = phi i32 [ 0, %9 ], [ -141, %6 ], [ -139, %3 ]
  ret i32 %.0
}